target datalayout = "e-m:e-p270:32:32-p271:32:32-p272:64:64-i64:64-i128:128-f80:128-n8:16:32:64-S128"
target triple = "x86_64-pc-linux-gnu"

%struct.iseq_link_anchor = type { %struct.iseq_link_element, ptr }
%struct.iseq_link_element = type { i32, ptr, ptr }
%struct.rb_iseq_struct = type { i64, i64, ptr, %union.anon.15 }
%union.anon.15 = type { %struct.anon.16 }
%struct.anon.16 = type { i64, i32 }
%struct.rb_iseq_constant_body = type { i32, i32, ptr, %struct.anon.18, %struct.rb_iseq_location_struct, %struct.iseq_insn_info, ptr, ptr, ptr, ptr, ptr, ptr, %struct.anon.19, i32, i32, i32, i32, i32, i32, i32, i32, i8, %union.anon.20, ptr, ptr, ptr, i64, ptr, i64, ptr, i64 }
%struct.anon.18 = type { %struct.anon, i32, i32, i32, i32, i32, i32, i32, ptr, ptr }
%struct.anon = type { i16, [2 x i8] }
%struct.rb_iseq_location_struct = type { i64, i64, i64, i32, i32, %struct.rb_code_location_struct }
%struct.rb_code_location_struct = type { %struct.rb_code_position_struct, %struct.rb_code_position_struct }
%struct.rb_code_position_struct = type { i32, i32 }
%struct.iseq_insn_info = type { ptr, ptr, i32, ptr }
%struct.anon.19 = type { i64, i64, i64, i64, ptr }
%union.anon.20 = type { ptr }
%struct.pm_scope_node = type { %struct.pm_node, ptr, ptr, ptr, ptr, %struct.pm_constant_id_list_t, ptr, ptr, ptr, ptr, i32, ptr, ptr, i32, ptr }
%struct.pm_node = type { i16, i16, i32, %struct.pm_location_t }
%struct.pm_location_t = type { ptr, ptr }
%struct.pm_constant_id_list_t = type { i64, i64, ptr }

@.str.295 = private unnamed_addr constant [7 x i8] c"append\00", align 1

; Function Attrs: nounwind sspstrong uwtable
define internal void @verify_list(ptr noundef %0, ptr noundef %1) #0 {
  %3 = alloca ptr, align 8
  %4 = alloca ptr, align 8
  store ptr %0, ptr %3, align 8, !tbaa !91
  store ptr %1, ptr %4, align 8, !tbaa !37
  ret void
}

; Function Attrs: nounwind sspstrong uwtable
define internal void @APPEND_LIST(ptr noundef %0, ptr noundef %1) #0 {
  %3 = alloca ptr, align 8
  %4 = alloca ptr, align 8
  store ptr %0, ptr %3, align 8, !tbaa !37
  store ptr %1, ptr %4, align 8, !tbaa !37
  %5 = load ptr, ptr %4, align 8, !tbaa !37
  %6 = getelementptr inbounds nuw %struct.iseq_link_anchor, ptr %5, i32 0, i32 0
  %7 = getelementptr inbounds nuw %struct.iseq_link_element, ptr %6, i32 0, i32 1
  %8 = load ptr, ptr %7, align 8, !tbaa !721
  %9 = icmp ne ptr %8, null
  br i1 %9, label %10, label %32

10:                                               ; preds = %2
  %11 = load ptr, ptr %4, align 8, !tbaa !37
  %12 = getelementptr inbounds nuw %struct.iseq_link_anchor, ptr %11, i32 0, i32 0
  %13 = getelementptr inbounds nuw %struct.iseq_link_element, ptr %12, i32 0, i32 1
  %14 = load ptr, ptr %13, align 8, !tbaa !721
  %15 = load ptr, ptr %3, align 8, !tbaa !37
  %16 = getelementptr inbounds nuw %struct.iseq_link_anchor, ptr %15, i32 0, i32 1
  %17 = load ptr, ptr %16, align 8, !tbaa !20
  %18 = getelementptr inbounds nuw %struct.iseq_link_element, ptr %17, i32 0, i32 1
  store ptr %14, ptr %18, align 8, !tbaa !22
  %19 = load ptr, ptr %3, align 8, !tbaa !37
  %20 = getelementptr inbounds nuw %struct.iseq_link_anchor, ptr %19, i32 0, i32 1
  %21 = load ptr, ptr %20, align 8, !tbaa !20
  %22 = load ptr, ptr %4, align 8, !tbaa !37
  %23 = getelementptr inbounds nuw %struct.iseq_link_anchor, ptr %22, i32 0, i32 0
  %24 = getelementptr inbounds nuw %struct.iseq_link_element, ptr %23, i32 0, i32 1
  %25 = load ptr, ptr %24, align 8, !tbaa !721
  %26 = getelementptr inbounds nuw %struct.iseq_link_element, ptr %25, i32 0, i32 2
  store ptr %21, ptr %26, align 8, !tbaa !40
  %27 = load ptr, ptr %4, align 8, !tbaa !37
  %28 = getelementptr inbounds nuw %struct.iseq_link_anchor, ptr %27, i32 0, i32 1
  %29 = load ptr, ptr %28, align 8, !tbaa !20
  %30 = load ptr, ptr %3, align 8, !tbaa !37
  %31 = getelementptr inbounds nuw %struct.iseq_link_anchor, ptr %30, i32 0, i32 1
  store ptr %29, ptr %31, align 8, !tbaa !20
  br label %33

32:                                               ; preds = %2
  br label %33

33:                                               ; preds = %32, %10
  %34 = load ptr, ptr %3, align 8, !tbaa !37
  call void @verify_list(ptr noundef @.str.295, ptr noundef %34)
  ret void
}

; Function Attrs: inlinehint nounwind sspstrong uwtable
define internal zeroext i1 @pm_iseq_pre_execution_p(ptr noundef %0) #3 {
  %2 = alloca i1, align 1
  %3 = alloca ptr, align 8
  store ptr %0, ptr %3, align 8, !tbaa !11
  %4 = load ptr, ptr %3, align 8, !tbaa !11
  %5 = getelementptr inbounds nuw %struct.rb_iseq_struct, ptr %4, i32 0, i32 2
  %6 = load ptr, ptr %5, align 8, !tbaa !52
  %7 = getelementptr inbounds nuw %struct.rb_iseq_constant_body, ptr %6, i32 0, i32 0
  %8 = load i32, ptr %7, align 8, !tbaa !80
  switch i32 %8, label %10 [
    i32 0, label %9
    i32 6, label %9
    i32 7, label %9
  ]

9:                                                ; preds = %1, %1, %1
  store i1 true, ptr %2, align 1
  br label %11

10:                                               ; preds = %1
  store i1 false, ptr %2, align 1
  br label %11

11:                                               ; preds = %10, %9
  %12 = load i1, ptr %2, align 1
  ret i1 %12
}

; Function Attrs: nounwind sspstrong uwtable
define hidden i64 @pm_iseq_compile_node(ptr noundef %0, ptr noundef %1) #0 {
  %3 = alloca i64, align 8
  %4 = alloca ptr, align 8
  %5 = alloca ptr, align 8
  %6 = alloca [1 x %struct.iseq_link_anchor], align 16
  %7 = alloca [1 x %struct.iseq_link_anchor], align 16
  %8 = alloca [1 x %struct.iseq_link_anchor], align 16
  %9 = alloca i32, align 4
  store ptr %0, ptr %4, align 8, !tbaa !11
  store ptr %1, ptr %5, align 8, !tbaa !292
  call void @llvm.lifetime.start.p0(i64 32, ptr %6) #31
  %10 = getelementptr inbounds nuw %struct.iseq_link_anchor, ptr %6, i32 0, i32 0
  call void @llvm.memset.p0.i64(ptr align 16 %10, i8 0, i64 24, i1 false)
  %11 = getelementptr inbounds nuw %struct.iseq_link_element, ptr %10, i32 0, i32 0
  store i32 0, ptr %11, align 16, !tbaa !16
  %12 = getelementptr inbounds nuw %struct.iseq_link_anchor, ptr %6, i32 0, i32 1
  %13 = getelementptr [1 x %struct.iseq_link_anchor], ptr %6, i64 0, i64 0
  %14 = getelementptr inbounds nuw %struct.iseq_link_anchor, ptr %13, i32 0, i32 0
  store ptr %14, ptr %12, align 8, !tbaa !20
  %15 = load ptr, ptr %4, align 8, !tbaa !11
  %16 = call zeroext i1 @pm_iseq_pre_execution_p(ptr noundef %15)
  br i1 %16, label %17, label %39

17:                                               ; preds = %2
  call void @llvm.lifetime.start.p0(i64 32, ptr %7) #31
  %18 = getelementptr inbounds nuw %struct.iseq_link_anchor, ptr %7, i32 0, i32 0
  call void @llvm.memset.p0.i64(ptr align 16 %18, i8 0, i64 24, i1 false)
  %19 = getelementptr inbounds nuw %struct.iseq_link_element, ptr %18, i32 0, i32 0
  store i32 0, ptr %19, align 16, !tbaa !16
  %20 = getelementptr inbounds nuw %struct.iseq_link_anchor, ptr %7, i32 0, i32 1
  %21 = getelementptr [1 x %struct.iseq_link_anchor], ptr %7, i64 0, i64 0
  %22 = getelementptr inbounds nuw %struct.iseq_link_anchor, ptr %21, i32 0, i32 0
  store ptr %22, ptr %20, align 8, !tbaa !20
  %23 = getelementptr inbounds [1 x %struct.iseq_link_anchor], ptr %7, i64 0, i64 0
  %24 = load ptr, ptr %5, align 8, !tbaa !292
  %25 = getelementptr inbounds nuw %struct.pm_scope_node, ptr %24, i32 0, i32 14
  store ptr %23, ptr %25, align 8, !tbaa !378
  call void @llvm.lifetime.start.p0(i64 32, ptr %8) #31
  %26 = getelementptr inbounds nuw %struct.iseq_link_anchor, ptr %8, i32 0, i32 0
  call void @llvm.memset.p0.i64(ptr align 16 %26, i8 0, i64 24, i1 false)
  %27 = getelementptr inbounds nuw %struct.iseq_link_element, ptr %26, i32 0, i32 0
  store i32 0, ptr %27, align 16, !tbaa !16
  %28 = getelementptr inbounds nuw %struct.iseq_link_anchor, ptr %8, i32 0, i32 1
  %29 = getelementptr [1 x %struct.iseq_link_anchor], ptr %8, i64 0, i64 0
  %30 = getelementptr inbounds nuw %struct.iseq_link_anchor, ptr %29, i32 0, i32 0
  store ptr %30, ptr %28, align 8, !tbaa !20
  %31 = load ptr, ptr %4, align 8, !tbaa !11
  %32 = load ptr, ptr %5, align 8, !tbaa !292
  %33 = getelementptr inbounds [1 x %struct.iseq_link_anchor], ptr %8, i64 0, i64 0
  %34 = load ptr, ptr %5, align 8, !tbaa !292
  call void @pm_compile_node(ptr noundef %31, ptr noundef %32, ptr noundef %33, i1 noundef zeroext false, ptr noundef %34)
  %35 = getelementptr inbounds [1 x %struct.iseq_link_anchor], ptr %6, i64 0, i64 0
  %36 = getelementptr inbounds [1 x %struct.iseq_link_anchor], ptr %7, i64 0, i64 0
  call void @APPEND_LIST(ptr noundef %35, ptr noundef %36)
  %37 = getelementptr inbounds [1 x %struct.iseq_link_anchor], ptr %6, i64 0, i64 0
  %38 = getelementptr inbounds [1 x %struct.iseq_link_anchor], ptr %8, i64 0, i64 0
  call void @APPEND_LIST(ptr noundef %37, ptr noundef %38)
  call void @llvm.lifetime.end.p0(i64 32, ptr %8) #31
  call void @llvm.lifetime.end.p0(i64 32, ptr %7) #31
  br label %44

39:                                               ; preds = %2
  %40 = load ptr, ptr %4, align 8, !tbaa !11
  %41 = load ptr, ptr %5, align 8, !tbaa !292
  %42 = getelementptr inbounds [1 x %struct.iseq_link_anchor], ptr %6, i64 0, i64 0
  %43 = load ptr, ptr %5, align 8, !tbaa !292
  call void @pm_compile_node(ptr noundef %40, ptr noundef %41, ptr noundef %42, i1 noundef zeroext false, ptr noundef %43)
  br label %44

44:                                               ; preds = %39, %17
  %45 = load ptr, ptr %4, align 8, !tbaa !11
  %46 = getelementptr inbounds [1 x %struct.iseq_link_anchor], ptr %6, i64 0, i64 0
  %47 = call i32 @iseq_setup_insn(ptr noundef %45, ptr noundef %46)
  %48 = icmp ne i32 %47, 0
  br i1 %48, label %50, label %49

49:                                               ; preds = %44
  store i64 0, ptr %3, align 8
  store i32 1, ptr %9, align 4
  br label %55

50:                                               ; preds = %44
  %51 = load ptr, ptr %4, align 8, !tbaa !11
  %52 = getelementptr inbounds [1 x %struct.iseq_link_anchor], ptr %6, i64 0, i64 0
  %53 = call i32 @iseq_setup(ptr noundef %51, ptr noundef %52)
  %54 = sext i32 %53 to i64
  store i64 %54, ptr %3, align 8
  store i32 1, ptr %9, align 4
  br label %55

55:                                               ; preds = %50, %49
  call void @llvm.lifetime.end.p0(i64 32, ptr %6) #31
  %56 = load i64, ptr %3, align 8
  ret i64 %56
}