; Function Attrs: nounwind sspstrong uwtable
define hidden range(i64 0, 2) i64 @pm_iseq_compile_node(ptr noundef %0, ptr noundef %1) local_unnamed_addr #1 {
  %3 = alloca [1 x %struct.iseq_link_anchor], align 16
  %4 = alloca [1 x %struct.iseq_link_anchor], align 16
  %5 = alloca [1 x %struct.iseq_link_anchor], align 16
  call void @llvm.lifetime.start.p0(i64 32, ptr nonnull %3) #38
  %6 = getelementptr inbounds nuw i8, ptr %3, i64 24
  call void @llvm.memset.p0.i64(ptr noundef nonnull align 16 dereferenceable(24) %3, i8 0, i64 24, i1 false)
  store ptr %3, ptr %6, align 8, !tbaa !7
  %7 = getelementptr i8, ptr %0, i64 16
  %.val = load ptr, ptr %7, align 8, !tbaa !45
  %.val.val = load i32, ptr %.val, align 8, !tbaa !46
  switch i32 %.val.val, label %pm_iseq_pre_execution_p.exit [
    i32 0, label %8
    i32 6, label %8
    i32 7, label %8
  ]

8:                                                ; preds = %2, %2, %2
  call void @llvm.lifetime.start.p0(i64 32, ptr nonnull %4) #38
  %9 = getelementptr inbounds nuw i8, ptr %4, i64 24
  call void @llvm.memset.p0.i64(ptr noundef nonnull align 16 dereferenceable(24) %4, i8 0, i64 24, i1 false)
  store ptr %4, ptr %9, align 8, !tbaa !7
  %10 = getelementptr inbounds nuw i8, ptr %1, i64 144
  store ptr %4, ptr %10, align 8, !tbaa !455
  call void @llvm.lifetime.start.p0(i64 32, ptr nonnull %5) #38
  %11 = getelementptr inbounds nuw i8, ptr %5, i64 24
  call void @llvm.memset.p0.i64(ptr noundef nonnull align 16 dereferenceable(24) %5, i8 0, i64 24, i1 false)
  store ptr %5, ptr %11, align 8, !tbaa !7
  call fastcc void @pm_compile_node(ptr noundef nonnull %0, ptr noundef %1, ptr noundef %5, i1 noundef zeroext false, ptr noundef %1)
  %12 = getelementptr inbounds nuw i8, ptr %4, i64 8
  %13 = load ptr, ptr %12, align 8, !tbaa !63
  %.not.i = icmp eq ptr %13, null
  br i1 %.not.i, label %APPEND_LIST.exit, label %14

14:                                               ; preds = %8
  %15 = load ptr, ptr %6, align 8, !tbaa !7
  %16 = getelementptr inbounds nuw i8, ptr %15, i64 8
  store ptr %13, ptr %16, align 8, !tbaa !36
  %17 = load ptr, ptr %12, align 8, !tbaa !63
  %18 = getelementptr inbounds nuw i8, ptr %17, i64 16
  store ptr %15, ptr %18, align 8, !tbaa !35
  %19 = load ptr, ptr %9, align 8, !tbaa !7
  store ptr %19, ptr %6, align 8, !tbaa !7
  br label %APPEND_LIST.exit

APPEND_LIST.exit:                                 ; preds = %8, %14
  %20 = getelementptr inbounds nuw i8, ptr %5, i64 8
  %21 = load ptr, ptr %20, align 8, !tbaa !63
  %.not.i10 = icmp eq ptr %21, null
  br i1 %.not.i10, label %APPEND_LIST.exit11, label %22

22:                                               ; preds = %APPEND_LIST.exit
  %23 = load ptr, ptr %6, align 8, !tbaa !7
  %24 = getelementptr inbounds nuw i8, ptr %23, i64 8
  store ptr %21, ptr %24, align 8, !tbaa !36
  %25 = load ptr, ptr %20, align 8, !tbaa !63
  %26 = getelementptr inbounds nuw i8, ptr %25, i64 16
  store ptr %23, ptr %26, align 8, !tbaa !35
  %27 = load ptr, ptr %11, align 8, !tbaa !7
  store ptr %27, ptr %6, align 8, !tbaa !7
  br label %APPEND_LIST.exit11

APPEND_LIST.exit11:                               ; preds = %APPEND_LIST.exit, %22
  call void @llvm.lifetime.end.p0(i64 32, ptr nonnull %5) #38
  call void @llvm.lifetime.end.p0(i64 32, ptr nonnull %4) #38
  br label %28

pm_iseq_pre_execution_p.exit:                     ; preds = %2
  call fastcc void @pm_compile_node(ptr noundef nonnull %0, ptr noundef %1, ptr noundef %3, i1 noundef zeroext false, ptr noundef %1)
  br label %28

28:                                               ; preds = %pm_iseq_pre_execution_p.exit, %APPEND_LIST.exit11
  %29 = call fastcc i32 @iseq_setup_insn(ptr noundef nonnull %0, ptr noundef %3)
  %.not = icmp eq i32 %29, 0
  br i1 %.not, label %33, label %30

30:                                               ; preds = %28
  %31 = call fastcc i32 @iseq_setup(ptr noundef nonnull %0, ptr noundef %3)
  %32 = zext nneg i32 %31 to i64
  br label %33

33:                                               ; preds = %28, %30
  %.0 = phi i64 [ %32, %30 ], [ 0, %28 ]
  call void @llvm.lifetime.end.p0(i64 32, ptr nonnull %3) #38
  ret i64 %.0
}